target datalayout = "e-m:e-p270:32:32-p271:32:32-p272:64:64-i64:64-i128:128-f80:128-n8:16:32:64-S128"
target triple = "x86_64-pc-linux-gnu"

%"class.std::set" = type { %"class.std::_Rb_tree.22" }
%"class.std::_Rb_tree.22" = type { %"struct.std::_Rb_tree<unsigned long, unsigned long, std::_Identity<unsigned long>, std::less<unsigned long>>::_Rb_tree_impl" }
%"struct.std::_Rb_tree<unsigned long, unsigned long, std::_Identity<unsigned long>, std::less<unsigned long>>::_Rb_tree_impl" = type { %"struct.std::_Rb_tree_key_compare.26", %"struct.std::_Rb_tree_header" }
%"struct.std::_Rb_tree_key_compare.26" = type { %"struct.std::less.27" }
%"struct.std::less.27" = type { i8 }
%"struct.std::_Rb_tree_header" = type { %"struct.std::_Rb_tree_node_base", i64 }
%"struct.std::_Rb_tree_node_base" = type { i32, ptr, ptr, ptr }
%class.cmCTestMultiProcessHandler = type <{ ptr, i8, [7 x i8], %class.cmCTestResourceSpec, %"class.std::__cxx11::basic_string", %"class.std::__cxx11::basic_string", %"class.std::optional", i8, [7 x i8], %"struct.cmCTestMultiProcessHandler::TestMap", %"class.std::__cxx11::list", i64, i64, i64, %"class.std::set", i64, i8, [7 x i8], %"struct.cmCTestMultiProcessHandler::PropertiesMap", %"class.std::map.34", ptr, ptr, %"class.std::vector.39", %"class.std::set.44", %"class.std::map.49", %"class.std::map.54", %class.cmCTestResourceAllocator, ptr, i64, %"class.std::optional.64", %"class.std::__cxx11::list", i64, i64, %"class.cm::uv_loop_ptr", %"struct.cm::uv_idle_ptr", %"struct.cm::uv_timer_ptr", ptr, ptr, i8, [3 x i8], i32, i32, i8, i8, [2 x i8] }>
%class.cmCTestResourceSpec = type { %"class.cmCTestResourceSpec::Socket", %class.cmJSONState }
%"class.cmCTestResourceSpec::Socket" = type { %"class.std::map" }
%"class.std::map" = type { %"class.std::_Rb_tree" }
%"class.std::_Rb_tree" = type { %"struct.std::_Rb_tree<std::__cxx11::basic_string<char>, std::pair<const std::__cxx11::basic_string<char>, std::vector<cmCTestResourceSpec::Resource>>, std::_Select1st<std::pair<const std::__cxx11::basic_string<char>, std::vector<cmCTestResourceSpec::Resource>>>, std::less<std::__cxx11::basic_string<char>>>::_Rb_tree_impl" }
%"struct.std::_Rb_tree<std::__cxx11::basic_string<char>, std::pair<const std::__cxx11::basic_string<char>, std::vector<cmCTestResourceSpec::Resource>>, std::_Select1st<std::pair<const std::__cxx11::basic_string<char>, std::vector<cmCTestResourceSpec::Resource>>>, std::less<std::__cxx11::basic_string<char>>>::_Rb_tree_impl" = type { %"struct.std::_Rb_tree_key_compare", %"struct.std::_Rb_tree_header" }
%"struct.std::_Rb_tree_key_compare" = type { %"struct.std::less" }
%"struct.std::less" = type { i8 }
%class.cmJSONState = type { %"class.std::vector", %"class.std::vector.3", %"class.std::__cxx11::basic_string" }
%"class.std::vector" = type { %"struct.std::_Vector_base" }
%"struct.std::_Vector_base" = type { %"struct.std::_Vector_base<std::pair<const std::__cxx11::basic_string<char>, const Json::Value *>, std::allocator<std::pair<const std::__cxx11::basic_string<char>, const Json::Value *>>>::_Vector_impl" }
%"struct.std::_Vector_base<std::pair<const std::__cxx11::basic_string<char>, const Json::Value *>, std::allocator<std::pair<const std::__cxx11::basic_string<char>, const Json::Value *>>>::_Vector_impl" = type { %"struct.std::_Vector_base<std::pair<const std::__cxx11::basic_string<char>, const Json::Value *>, std::allocator<std::pair<const std::__cxx11::basic_string<char>, const Json::Value *>>>::_Vector_impl_data" }
%"struct.std::_Vector_base<std::pair<const std::__cxx11::basic_string<char>, const Json::Value *>, std::allocator<std::pair<const std::__cxx11::basic_string<char>, const Json::Value *>>>::_Vector_impl_data" = type { ptr, ptr, ptr }
%"class.std::vector.3" = type { %"struct.std::_Vector_base.4" }
%"struct.std::_Vector_base.4" = type { %"struct.std::_Vector_base<cmJSONState::Error, std::allocator<cmJSONState::Error>>::_Vector_impl" }
%"struct.std::_Vector_base<cmJSONState::Error, std::allocator<cmJSONState::Error>>::_Vector_impl" = type { %"struct.std::_Vector_base<cmJSONState::Error, std::allocator<cmJSONState::Error>>::_Vector_impl_data" }
%"struct.std::_Vector_base<cmJSONState::Error, std::allocator<cmJSONState::Error>>::_Vector_impl_data" = type { ptr, ptr, ptr }
%"class.std::__cxx11::basic_string" = type { %"struct.std::__cxx11::basic_string<char>::_Alloc_hider", i64, %union.anon }
%"struct.std::__cxx11::basic_string<char>::_Alloc_hider" = type { ptr }
%union.anon = type { i64, [8 x i8] }
%"class.std::optional" = type { %"struct.std::_Optional_base" }
%"struct.std::_Optional_base" = type { %"struct.std::_Optional_payload" }
%"struct.std::_Optional_payload" = type { %"struct.std::_Optional_payload_base.base", [7 x i8] }
%"struct.std::_Optional_payload_base.base" = type <{ %"union.std::_Optional_payload_base<unsigned long>::_Storage", i8 }>
%"union.std::_Optional_payload_base<unsigned long>::_Storage" = type { i64 }
%"struct.cmCTestMultiProcessHandler::TestMap" = type { %"class.std::map.11" }
%"class.std::map.11" = type { %"class.std::_Rb_tree.12" }
%"class.std::_Rb_tree.12" = type { %"struct.std::_Rb_tree<int, std::pair<const int, cmCTestMultiProcessHandler::TestInfo>, std::_Select1st<std::pair<const int, cmCTestMultiProcessHandler::TestInfo>>, std::less<int>>::_Rb_tree_impl" }
%"struct.std::_Rb_tree<int, std::pair<const int, cmCTestMultiProcessHandler::TestInfo>, std::_Select1st<std::pair<const int, cmCTestMultiProcessHandler::TestInfo>>, std::less<int>>::_Rb_tree_impl" = type { %"struct.std::_Rb_tree_key_compare.16", %"struct.std::_Rb_tree_header" }
%"struct.std::_Rb_tree_key_compare.16" = type { %"struct.std::less.17" }
%"struct.std::less.17" = type { i8 }
%"struct.cmCTestMultiProcessHandler::PropertiesMap" = type { %"class.std::map.29" }
%"class.std::map.29" = type { %"class.std::_Rb_tree.30" }
%"class.std::_Rb_tree.30" = type { %"struct.std::_Rb_tree<int, std::pair<const int, cmCTestTestHandler::cmCTestTestProperties *>, std::_Select1st<std::pair<const int, cmCTestTestHandler::cmCTestTestProperties *>>, std::less<int>>::_Rb_tree_impl" }
%"struct.std::_Rb_tree<int, std::pair<const int, cmCTestTestHandler::cmCTestTestProperties *>, std::_Select1st<std::pair<const int, cmCTestTestHandler::cmCTestTestProperties *>>, std::less<int>>::_Rb_tree_impl" = type { %"struct.std::_Rb_tree_key_compare.16", %"struct.std::_Rb_tree_header" }
%"class.std::map.34" = type { %"class.std::_Rb_tree.35" }
%"class.std::_Rb_tree.35" = type { %"struct.std::_Rb_tree<int, std::pair<const int, std::__cxx11::basic_string<char>>, std::_Select1st<std::pair<const int, std::__cxx11::basic_string<char>>>, std::less<int>>::_Rb_tree_impl" }
%"struct.std::_Rb_tree<int, std::pair<const int, std::__cxx11::basic_string<char>>, std::_Select1st<std::pair<const int, std::__cxx11::basic_string<char>>>, std::less<int>>::_Rb_tree_impl" = type { %"struct.std::_Rb_tree_key_compare.16", %"struct.std::_Rb_tree_header" }
%"class.std::vector.39" = type { %"struct.std::_Vector_base.40" }
%"struct.std::_Vector_base.40" = type { %"struct.std::_Vector_base<std::__cxx11::basic_string<char>, std::allocator<std::__cxx11::basic_string<char>>>::_Vector_impl" }
%"struct.std::_Vector_base<std::__cxx11::basic_string<char>, std::allocator<std::__cxx11::basic_string<char>>>::_Vector_impl" = type { %"struct.std::_Vector_base<std::__cxx11::basic_string<char>, std::allocator<std::__cxx11::basic_string<char>>>::_Vector_impl_data" }
%"struct.std::_Vector_base<std::__cxx11::basic_string<char>, std::allocator<std::__cxx11::basic_string<char>>>::_Vector_impl_data" = type { ptr, ptr, ptr }
%"class.std::set.44" = type { %"class.std::_Rb_tree.45" }
%"class.std::_Rb_tree.45" = type { %"struct.std::_Rb_tree<std::__cxx11::basic_string<char>, std::__cxx11::basic_string<char>, std::_Identity<std::__cxx11::basic_string<char>>, std::less<std::__cxx11::basic_string<char>>>::_Rb_tree_impl" }
%"struct.std::_Rb_tree<std::__cxx11::basic_string<char>, std::__cxx11::basic_string<char>, std::_Identity<std::__cxx11::basic_string<char>>, std::less<std::__cxx11::basic_string<char>>>::_Rb_tree_impl" = type { %"struct.std::_Rb_tree_key_compare", %"struct.std::_Rb_tree_header" }
%"class.std::map.49" = type { %"class.std::_Rb_tree.50" }
%"class.std::_Rb_tree.50" = type { %"struct.std::_Rb_tree<int, std::pair<const int, std::vector<std::map<std::__cxx11::basic_string<char>, std::vector<cmCTestMultiProcessHandler::ResourceAllocation>>>>, std::_Select1st<std::pair<const int, std::vector<std::map<std::__cxx11::basic_string<char>, std::vector<cmCTestMultiProcessHandler::ResourceAllocation>>>>>, std::less<int>>::_Rb_tree_impl" }
%"struct.std::_Rb_tree<int, std::pair<const int, std::vector<std::map<std::__cxx11::basic_string<char>, std::vector<cmCTestMultiProcessHandler::ResourceAllocation>>>>, std::_Select1st<std::pair<const int, std::vector<std::map<std::__cxx11::basic_string<char>, std::vector<cmCTestMultiProcessHandler::ResourceAllocation>>>>>, std::less<int>>::_Rb_tree_impl" = type { %"struct.std::_Rb_tree_key_compare.16", %"struct.std::_Rb_tree_header" }
%"class.std::map.54" = type { %"class.std::_Rb_tree.55" }
%"class.std::_Rb_tree.55" = type { %"struct.std::_Rb_tree<int, std::pair<const int, std::map<std::__cxx11::basic_string<char>, cmCTestMultiProcessHandler::ResourceAvailabilityError>>, std::_Select1st<std::pair<const int, std::map<std::__cxx11::basic_string<char>, cmCTestMultiProcessHandler::ResourceAvailabilityError>>>, std::less<int>>::_Rb_tree_impl" }
%"struct.std::_Rb_tree<int, std::pair<const int, std::map<std::__cxx11::basic_string<char>, cmCTestMultiProcessHandler::ResourceAvailabilityError>>, std::_Select1st<std::pair<const int, std::map<std::__cxx11::basic_string<char>, cmCTestMultiProcessHandler::ResourceAvailabilityError>>>, std::less<int>>::_Rb_tree_impl" = type { %"struct.std::_Rb_tree_key_compare.16", %"struct.std::_Rb_tree_header" }
%class.cmCTestResourceAllocator = type { %"class.std::map.59" }
%"class.std::map.59" = type { %"class.std::_Rb_tree.60" }
%"class.std::_Rb_tree.60" = type { %"struct.std::_Rb_tree<std::__cxx11::basic_string<char>, std::pair<const std::__cxx11::basic_string<char>, std::map<std::__cxx11::basic_string<char>, cmCTestResourceAllocator::Resource>>, std::_Select1st<std::pair<const std::__cxx11::basic_string<char>, std::map<std::__cxx11::basic_string<char>, cmCTestResourceAllocator::Resource>>>, std::less<std::__cxx11::basic_string<char>>>::_Rb_tree_impl" }
%"struct.std::_Rb_tree<std::__cxx11::basic_string<char>, std::pair<const std::__cxx11::basic_string<char>, std::map<std::__cxx11::basic_string<char>, cmCTestResourceAllocator::Resource>>, std::_Select1st<std::pair<const std::__cxx11::basic_string<char>, std::map<std::__cxx11::basic_string<char>, cmCTestResourceAllocator::Resource>>>, std::less<std::__cxx11::basic_string<char>>>::_Rb_tree_impl" = type { %"struct.std::_Rb_tree_key_compare", %"struct.std::_Rb_tree_header" }
%"class.std::optional.64" = type { %"struct.std::_Optional_base.65" }
%"struct.std::_Optional_base.65" = type { %"struct.std::_Optional_payload.67" }
%"struct.std::_Optional_payload.67" = type { %"struct.std::_Optional_payload.base.73", [7 x i8] }
%"struct.std::_Optional_payload.base.73" = type { %"struct.std::_Optional_payload_base.base.72" }
%"struct.std::_Optional_payload_base.base.72" = type <{ %"union.std::_Optional_payload_base<cmUVJobServerClient>::_Storage", i8 }>
%"union.std::_Optional_payload_base<cmUVJobServerClient>::_Storage" = type { %class.cmUVJobServerClient }
%class.cmUVJobServerClient = type { %"class.std::unique_ptr" }
%"class.std::unique_ptr" = type { %"struct.std::__uniq_ptr_data" }
%"struct.std::__uniq_ptr_data" = type { %"class.std::__uniq_ptr_impl" }
%"class.std::__uniq_ptr_impl" = type { %"class.std::tuple" }
%"class.std::tuple" = type { %"struct.std::_Tuple_impl" }
%"struct.std::_Tuple_impl" = type { %"struct.std::_Head_base.71" }
%"struct.std::_Head_base.71" = type { ptr }
%"class.std::__cxx11::list" = type { %"class.std::__cxx11::_List_base" }
%"class.std::__cxx11::_List_base" = type { %"struct.std::__cxx11::_List_base<int, std::allocator<int>>::_List_impl" }
%"struct.std::__cxx11::_List_base<int, std::allocator<int>>::_List_impl" = type { %"struct.std::__detail::_List_node_header" }
%"struct.std::__detail::_List_node_header" = type { %"struct.std::__detail::_List_node_base", i64 }
%"struct.std::__detail::_List_node_base" = type { ptr, ptr }
%"class.cm::uv_loop_ptr" = type { %"class.std::shared_ptr" }
%"class.std::shared_ptr" = type { %"class.std::__shared_ptr" }
%"class.std::__shared_ptr" = type { ptr, %"class.std::__shared_count" }
%"class.std::__shared_count" = type { ptr }
%"struct.cm::uv_idle_ptr" = type { %"class.cm::uv_handle_ptr_" }
%"class.cm::uv_handle_ptr_" = type { %"class.cm::uv_handle_ptr_base_" }
%"class.cm::uv_handle_ptr_base_" = type { %"class.std::shared_ptr.76" }
%"class.std::shared_ptr.76" = type { %"class.std::__shared_ptr.77" }
%"class.std::__shared_ptr.77" = type { ptr, %"class.std::__shared_count" }
%"struct.cm::uv_timer_ptr" = type { %"class.cm::uv_handle_ptr_.79" }
%"class.cm::uv_handle_ptr_.79" = type { %"class.cm::uv_handle_ptr_base_.80" }
%"class.cm::uv_handle_ptr_base_.80" = type { %"class.std::shared_ptr.81" }
%"class.std::shared_ptr.81" = type { %"class.std::__shared_ptr.82" }
%"class.std::__shared_ptr.82" = type { ptr, %"class.std::__shared_count" }
%"struct.std::_List_iterator" = type { ptr }
%"struct.std::_List_node" = type <{ %"struct.std::__detail::_List_node_base", %"struct.__gnu_cxx::__aligned_membuf.325", [4 x i8] }>
%"struct.__gnu_cxx::__aligned_membuf.325" = type { [4 x i8] }

; Function Attrs: mustprogress nounwind uwtable
define linkonce_odr dso_local void @_ZNSt15__new_allocatorISt10_List_nodeIiEE10deallocateEPS1_m(ptr noundef nonnull align 1 dereferenceable(1) %0, ptr noundef %1, i64 noundef %2) #5 comdat align 2 {
  %4 = alloca ptr, align 8
  %5 = alloca ptr, align 8
  %6 = alloca i64, align 8
  store ptr %0, ptr %4, align 8
  store ptr %1, ptr %5, align 8
  store i64 %2, ptr %6, align 8
  %7 = load ptr, ptr %5, align 8
  call void @_ZdlPv(ptr noundef %7) #18
  ret void
}

; Function Attrs: mustprogress nounwind uwtable
define linkonce_odr dso_local noundef ptr @_ZN9__gnu_cxx16__aligned_membufIiE7_M_addrEv(ptr noundef nonnull align 4 dereferenceable(4) %0) #5 comdat align 2 {
  %2 = alloca ptr, align 8
  store ptr %0, ptr %2, align 8
  %3 = load ptr, ptr %2, align 8
  %4 = getelementptr inbounds %"struct.__gnu_cxx::__aligned_membuf.325", ptr %3, i32 0, i32 0
  ret ptr %4
}

; Function Attrs: mustprogress uwtable
define linkonce_odr dso_local void @_ZNSt16allocator_traitsISaISt10_List_nodeIiEEE10deallocateERS2_PS1_m(ptr noundef nonnull align 1 dereferenceable(1) %0, ptr noundef %1, i64 noundef %2) #4 comdat align 2 {
  %4 = alloca ptr, align 8
  %5 = alloca ptr, align 8
  %6 = alloca i64, align 8
  store ptr %0, ptr %4, align 8
  store ptr %1, ptr %5, align 8
  store i64 %2, ptr %6, align 8
  %7 = load ptr, ptr %4, align 8
  %8 = load ptr, ptr %5, align 8
  %9 = load i64, ptr %6, align 8
  call void @_ZNSt15__new_allocatorISt10_List_nodeIiEE10deallocateEPS1_m(ptr noundef nonnull align 1 dereferenceable(1) %7, ptr noundef %8, i64 noundef %9)
  ret void
}

; Function Attrs: mustprogress nounwind uwtable
define linkonce_odr dso_local void @_ZNSt15__new_allocatorISt10_List_nodeIiEE7destroyIiEEvPT_(ptr noundef nonnull align 1 dereferenceable(1) %0, ptr noundef %1) #5 comdat align 2 {
  %3 = alloca ptr, align 8
  %4 = alloca ptr, align 8
  store ptr %0, ptr %3, align 8
  store ptr %1, ptr %4, align 8
  ret void
}

; Function Attrs: mustprogress nounwind uwtable
define linkonce_odr dso_local noundef ptr @_ZN9__gnu_cxx16__aligned_membufIiE6_M_ptrEv(ptr noundef nonnull align 4 dereferenceable(4) %0) #5 comdat align 2 {
  %2 = alloca ptr, align 8
  store ptr %0, ptr %2, align 8
  %3 = load ptr, ptr %2, align 8
  %4 = call noundef ptr @_ZN9__gnu_cxx16__aligned_membufIiE7_M_addrEv(ptr noundef nonnull align 4 dereferenceable(4) %3) #3
  ret ptr %4
}

; Function Attrs: noreturn nounwind uwtable
define linkonce_odr hidden void @__clang_call_terminate(ptr noundef %0) #10 comdat {
  %2 = call ptr @__cxa_begin_catch(ptr %0) #3
  call void @_ZSt9terminatev() #17
  unreachable
}

; Function Attrs: mustprogress nounwind uwtable
define linkonce_odr dso_local void @_ZNSt7__cxx1110_List_baseIiSaIiEE11_M_put_nodeEPSt10_List_nodeIiE(ptr noundef nonnull align 8 dereferenceable(24) %0, ptr noundef %1) #5 comdat align 2 personality ptr @__gxx_personality_v0 {
  %3 = alloca ptr, align 8
  %4 = alloca ptr, align 8
  store ptr %0, ptr %3, align 8
  store ptr %1, ptr %4, align 8
  %5 = load ptr, ptr %3, align 8
  %6 = getelementptr inbounds %"class.std::__cxx11::_List_base", ptr %5, i32 0, i32 0
  %7 = load ptr, ptr %4, align 8
  invoke void @_ZNSt16allocator_traitsISaISt10_List_nodeIiEEE10deallocateERS2_PS1_m(ptr noundef nonnull align 1 dereferenceable(1) %6, ptr noundef %7, i64 noundef 1)
          to label %8 unwind label %9

8:                                                ; preds = %2
  ret void

9:                                                ; preds = %2
  %10 = landingpad { ptr, i32 }
          catch ptr null
  %11 = extractvalue { ptr, i32 } %10, 0
  call void @__clang_call_terminate(ptr %11) #17
  unreachable
}

; Function Attrs: mustprogress nounwind uwtable
define linkonce_odr dso_local void @_ZNSt16allocator_traitsISaISt10_List_nodeIiEEE7destroyIiEEvRS2_PT_(ptr noundef nonnull align 1 dereferenceable(1) %0, ptr noundef %1) #5 comdat align 2 {
  %3 = alloca ptr, align 8
  %4 = alloca ptr, align 8
  store ptr %0, ptr %3, align 8
  store ptr %1, ptr %4, align 8
  %5 = load ptr, ptr %3, align 8
  %6 = load ptr, ptr %4, align 8
  call void @_ZNSt15__new_allocatorISt10_List_nodeIiEE7destroyIiEEvPT_(ptr noundef nonnull align 1 dereferenceable(1) %5, ptr noundef %6) #3
  ret void
}

; Function Attrs: mustprogress nounwind uwtable
define linkonce_odr dso_local noundef nonnull align 1 dereferenceable(1) ptr @_ZNSt7__cxx1110_List_baseIiSaIiEE21_M_get_Node_allocatorEv(ptr noundef nonnull align 8 dereferenceable(24) %0) #5 comdat align 2 {
  %2 = alloca ptr, align 8
  store ptr %0, ptr %2, align 8
  %3 = load ptr, ptr %2, align 8
  %4 = getelementptr inbounds %"class.std::__cxx11::_List_base", ptr %3, i32 0, i32 0
  ret ptr %4
}

; Function Attrs: mustprogress nounwind uwtable
define linkonce_odr dso_local void @_ZNSt7__cxx1110_List_baseIiSaIiEE11_M_dec_sizeEm(ptr noundef nonnull align 8 dereferenceable(24) %0, i64 noundef %1) #5 comdat align 2 {
  %3 = alloca ptr, align 8
  %4 = alloca i64, align 8
  store ptr %0, ptr %3, align 8
  store i64 %1, ptr %4, align 8
  %5 = load ptr, ptr %3, align 8
  %6 = load i64, ptr %4, align 8
  %7 = getelementptr inbounds %"class.std::__cxx11::_List_base", ptr %5, i32 0, i32 0
  %8 = getelementptr inbounds %"struct.std::__cxx11::_List_base<int, std::allocator<int>>::_List_impl", ptr %7, i32 0, i32 0
  %9 = getelementptr inbounds %"struct.std::__detail::_List_node_header", ptr %8, i32 0, i32 1
  %10 = load i64, ptr %9, align 8
  %11 = sub i64 %10, %6
  store i64 %11, ptr %9, align 8
  ret void
}

; Function Attrs: mustprogress nounwind uwtable
define linkonce_odr dso_local noundef ptr @_ZNSt10_List_nodeIiE9_M_valptrEv(ptr noundef nonnull align 8 dereferenceable(20) %0) #5 comdat align 2 {
  %2 = alloca ptr, align 8
  store ptr %0, ptr %2, align 8
  %3 = load ptr, ptr %2, align 8
  %4 = getelementptr inbounds %"struct.std::_List_node", ptr %3, i32 0, i32 1
  %5 = call noundef ptr @_ZN9__gnu_cxx16__aligned_membufIiE6_M_ptrEv(ptr noundef nonnull align 4 dereferenceable(4) %4) #3
  ret ptr %5
}

; Function Attrs: mustprogress nounwind uwtable
define linkonce_odr dso_local void @_ZNSt14_List_iteratorIiEC2EPNSt8__detail15_List_node_baseE(ptr noundef nonnull align 8 dereferenceable(8) %0, ptr noundef %1) unnamed_addr #5 comdat align 2 {
  %3 = alloca ptr, align 8
  %4 = alloca ptr, align 8
  store ptr %0, ptr %3, align 8
  store ptr %1, ptr %4, align 8
  %5 = load ptr, ptr %3, align 8
  %6 = getelementptr inbounds %"struct.std::_List_iterator", ptr %5, i32 0, i32 0
  %7 = load ptr, ptr %4, align 8
  store ptr %7, ptr %6, align 8
  ret void
}

; Function Attrs: mustprogress nounwind uwtable
define linkonce_odr dso_local void @_ZNSt7__cxx114listIiSaIiEE8_M_eraseESt14_List_iteratorIiE(ptr noundef nonnull align 8 dereferenceable(24) %0, ptr %1) #5 comdat align 2 personality ptr @__gxx_personality_v0 {
  %3 = alloca %"struct.std::_List_iterator", align 8
  %4 = alloca ptr, align 8
  %5 = alloca ptr, align 8
  %6 = getelementptr inbounds %"struct.std::_List_iterator", ptr %3, i32 0, i32 0
  store ptr %1, ptr %6, align 8
  store ptr %0, ptr %4, align 8
  %7 = load ptr, ptr %4, align 8
  invoke void @_ZNSt7__cxx1110_List_baseIiSaIiEE11_M_dec_sizeEm(ptr noundef nonnull align 8 dereferenceable(24) %7, i64 noundef 1)
          to label %8 unwind label %17

8:                                                ; preds = %2
  %9 = getelementptr inbounds %"struct.std::_List_iterator", ptr %3, i32 0, i32 0
  %10 = load ptr, ptr %9, align 8
  call void @_ZNSt8__detail15_List_node_base9_M_unhookEv(ptr noundef nonnull align 8 dereferenceable(16) %10) #3
  %11 = getelementptr inbounds %"struct.std::_List_iterator", ptr %3, i32 0, i32 0
  %12 = load ptr, ptr %11, align 8
  store ptr %12, ptr %5, align 8
  %13 = call noundef nonnull align 1 dereferenceable(1) ptr @_ZNSt7__cxx1110_List_baseIiSaIiEE21_M_get_Node_allocatorEv(ptr noundef nonnull align 8 dereferenceable(24) %7) #3
  %14 = load ptr, ptr %5, align 8
  %15 = call noundef ptr @_ZNSt10_List_nodeIiE9_M_valptrEv(ptr noundef nonnull align 8 dereferenceable(20) %14)
  call void @_ZNSt16allocator_traitsISaISt10_List_nodeIiEEE7destroyIiEEvRS2_PT_(ptr noundef nonnull align 1 dereferenceable(1) %13, ptr noundef %15) #3
  %16 = load ptr, ptr %5, align 8
  call void @_ZNSt7__cxx1110_List_baseIiSaIiEE11_M_put_nodeEPSt10_List_nodeIiE(ptr noundef nonnull align 8 dereferenceable(24) %7, ptr noundef %16) #3
  ret void

17:                                               ; preds = %2
  %18 = landingpad { ptr, i32 }
          catch ptr null
  %19 = extractvalue { ptr, i32 } %18, 0
  call void @__clang_call_terminate(ptr %19) #17
  unreachable
}

; Function Attrs: mustprogress nounwind uwtable
define linkonce_odr dso_local noundef nonnull align 4 dereferenceable(4) ptr @_ZNKSt14_List_iteratorIiEdeEv(ptr noundef nonnull align 8 dereferenceable(8) %0) #5 comdat align 2 {
  %2 = alloca ptr, align 8
  store ptr %0, ptr %2, align 8
  %3 = load ptr, ptr %2, align 8
  %4 = getelementptr inbounds %"struct.std::_List_iterator", ptr %3, i32 0, i32 0
  %5 = load ptr, ptr %4, align 8
  %6 = call noundef ptr @_ZNSt10_List_nodeIiE9_M_valptrEv(ptr noundef nonnull align 8 dereferenceable(20) %5)
  ret ptr %6
}

; Function Attrs: mustprogress nounwind uwtable
define linkonce_odr dso_local ptr @_ZNSt7__cxx114listIiSaIiEE5beginEv(ptr noundef nonnull align 8 dereferenceable(24) %0) #5 comdat align 2 {
  %2 = alloca %"struct.std::_List_iterator", align 8
  %3 = alloca ptr, align 8
  store ptr %0, ptr %3, align 8
  %4 = load ptr, ptr %3, align 8
  %5 = getelementptr inbounds %"class.std::__cxx11::_List_base", ptr %4, i32 0, i32 0
  %6 = getelementptr inbounds %"struct.std::__cxx11::_List_base<int, std::allocator<int>>::_List_impl", ptr %5, i32 0, i32 0
  %7 = getelementptr inbounds %"struct.std::__detail::_List_node_base", ptr %6, i32 0, i32 0
  %8 = load ptr, ptr %7, align 8
  call void @_ZNSt14_List_iteratorIiEC2EPNSt8__detail15_List_node_baseE(ptr noundef nonnull align 8 dereferenceable(8) %2, ptr noundef %8) #3
  %9 = getelementptr inbounds %"struct.std::_List_iterator", ptr %2, i32 0, i32 0
  %10 = load ptr, ptr %9, align 8
  ret ptr %10
}

; Function Attrs: mustprogress nounwind uwtable
define linkonce_odr dso_local void @_ZNSt7__cxx114listIiSaIiEE9pop_frontEv(ptr noundef nonnull align 8 dereferenceable(24) %0) #5 comdat align 2 {
  %2 = alloca ptr, align 8
  %3 = alloca %"struct.std::_List_iterator", align 8
  store ptr %0, ptr %2, align 8
  %4 = load ptr, ptr %2, align 8
  %5 = call ptr @_ZNSt7__cxx114listIiSaIiEE5beginEv(ptr noundef nonnull align 8 dereferenceable(24) %4) #3
  %6 = getelementptr inbounds %"struct.std::_List_iterator", ptr %3, i32 0, i32 0
  store ptr %5, ptr %6, align 8
  %7 = getelementptr inbounds %"struct.std::_List_iterator", ptr %3, i32 0, i32 0
  %8 = load ptr, ptr %7, align 8
  call void @_ZNSt7__cxx114listIiSaIiEE8_M_eraseESt14_List_iteratorIiE(ptr noundef nonnull align 8 dereferenceable(24) %4, ptr %8) #3
  ret void
}

; Function Attrs: mustprogress nounwind uwtable
define linkonce_odr dso_local noundef nonnull align 4 dereferenceable(4) ptr @_ZNSt7__cxx114listIiSaIiEE5frontEv(ptr noundef nonnull align 8 dereferenceable(24) %0) #5 comdat align 2 {
  %2 = alloca ptr, align 8
  %3 = alloca %"struct.std::_List_iterator", align 8
  store ptr %0, ptr %2, align 8
  %4 = load ptr, ptr %2, align 8
  %5 = call ptr @_ZNSt7__cxx114listIiSaIiEE5beginEv(ptr noundef nonnull align 8 dereferenceable(24) %4) #3
  %6 = getelementptr inbounds %"struct.std::_List_iterator", ptr %3, i32 0, i32 0
  store ptr %5, ptr %6, align 8
  %7 = call noundef nonnull align 4 dereferenceable(4) ptr @_ZNKSt14_List_iteratorIiEdeEv(ptr noundef nonnull align 8 dereferenceable(8) %3) #3
  ret ptr %7
}

; Function Attrs: mustprogress uwtable
define dso_local void @_ZN26cmCTestMultiProcessHandler22JobServerReceivedTokenEv(ptr noundef nonnull align 8 dereferenceable(870) %0) #4 align 2 {
  %2 = alloca ptr, align 8
  %3 = alloca i32, align 4
  store ptr %0, ptr %2, align 8
  %4 = load ptr, ptr %2, align 8
  %5 = getelementptr inbounds %class.cmCTestMultiProcessHandler, ptr %4, i32 0, i32 30
  %6 = call noundef nonnull align 4 dereferenceable(4) ptr @_ZNSt7__cxx114listIiSaIiEE5frontEv(ptr noundef nonnull align 8 dereferenceable(24) %5) #3
  %7 = load i32, ptr %6, align 4
  store i32 %7, ptr %3, align 4
  %8 = getelementptr inbounds %class.cmCTestMultiProcessHandler, ptr %4, i32 0, i32 30
  call void @_ZNSt7__cxx114listIiSaIiEE9pop_frontEv(ptr noundef nonnull align 8 dereferenceable(24) %8) #3
  %9 = load i32, ptr %3, align 4
  call void @_ZN26cmCTestMultiProcessHandler16StartTestProcessEi(ptr noundef nonnull align 8 dereferenceable(870) %4, i32 noundef %9)
  ret void
}