; Function Attrs: mustprogress uwtable
define dso_local void @_ZN26cmCTestMultiProcessHandler22JobServerReceivedTokenEv(ptr noundef nonnull align 8 dereferenceable(870) %0) local_unnamed_addr #3 align 2 personality ptr @__gxx_personality_v0 {
  %2 = getelementptr inbounds i8, ptr %0, i64 752
  %3 = load ptr, ptr %2, align 8
  %4 = getelementptr inbounds i8, ptr %3, i64 16
  %5 = load i32, ptr %4, align 4
  %6 = getelementptr inbounds i8, ptr %0, i64 768
  %7 = load i64, ptr %6, align 8
  %8 = add i64 %7, -1
  store i64 %8, ptr %6, align 8
  tail call void @_ZNSt8__detail15_List_node_base9_M_unhookEv(ptr noundef nonnull align 8 dereferenceable(16) %3) #25
  tail call void @_ZdlPv(ptr noundef %3) #27
  tail call void @_ZN26cmCTestMultiProcessHandler16StartTestProcessEi(ptr noundef nonnull align 8 dereferenceable(870) %0, i32 noundef %5)
  ret void
}